target datalayout = "e-m:e-p270:32:32-p271:32:32-p272:64:64-i64:64-i128:128-f80:128-n8:16:32:64-S128"
target triple = "x86_64-pc-linux-gnu"

%struct.lzma_stream = type { ptr, i64, i64, ptr, i64, i64, ptr, ptr, ptr, ptr, ptr, ptr, i64, i64, i64, i64, i32, i32 }
%struct.lzma_internal_s = type { %struct.lzma_next_coder_s, i32, i64, [5 x i8], i8 }
%struct.lzma_next_coder_s = type { ptr, i64, i64, ptr, ptr, ptr, ptr, ptr, ptr }

; Function Attrs: nounwind uwtable
define dso_local i32 @lzma_raw_encoder(ptr noundef %0, ptr noundef %1) #1 {
  %3 = alloca i32, align 4
  %4 = alloca ptr, align 8
  %5 = alloca ptr, align 8
  %6 = alloca i32, align 4
  %7 = alloca i32, align 4
  store ptr %0, ptr %4, align 8
  store ptr %1, ptr %5, align 8
  br label %8

8:                                                ; preds = %2
  br label %9

9:                                                ; preds = %8
  %10 = load ptr, ptr %4, align 8
  %11 = call i32 @lzma_strm_init(ptr noundef %10)
  store i32 %11, ptr %6, align 4
  %12 = load i32, ptr %6, align 4
  %13 = icmp ne i32 %12, 0
  br i1 %13, label %14, label %16

14:                                               ; preds = %9
  %15 = load i32, ptr %6, align 4
  store i32 %15, ptr %3, align 4
  br label %49

16:                                               ; preds = %9
  br label %17

17:                                               ; preds = %16
  %18 = load ptr, ptr %4, align 8
  %19 = getelementptr inbounds %struct.lzma_stream, ptr %18, i32 0, i32 7
  %20 = load ptr, ptr %19, align 8
  %21 = getelementptr inbounds %struct.lzma_internal_s, ptr %20, i32 0, i32 0
  %22 = load ptr, ptr %4, align 8
  %23 = getelementptr inbounds %struct.lzma_stream, ptr %22, i32 0, i32 6
  %24 = load ptr, ptr %23, align 8
  %25 = load ptr, ptr %5, align 8
  %26 = call i32 @lzma_raw_coder_init(ptr noundef %21, ptr noundef %24, ptr noundef %25, ptr noundef @encoder_find, i1 noundef zeroext true)
  store i32 %26, ptr %7, align 4
  %27 = load i32, ptr %7, align 4
  %28 = icmp ne i32 %27, 0
  br i1 %28, label %29, label %32

29:                                               ; preds = %17
  %30 = load ptr, ptr %4, align 8
  call void @lzma_end(ptr noundef %30) #7
  %31 = load i32, ptr %7, align 4
  store i32 %31, ptr %3, align 4
  br label %49

32:                                               ; preds = %17
  br label %33

33:                                               ; preds = %32
  %34 = load ptr, ptr %4, align 8
  %35 = getelementptr inbounds %struct.lzma_stream, ptr %34, i32 0, i32 7
  %36 = load ptr, ptr %35, align 8
  %37 = getelementptr inbounds %struct.lzma_internal_s, ptr %36, i32 0, i32 3
  %38 = getelementptr inbounds [5 x i8], ptr %37, i64 0, i64 0
  store i8 1, ptr %38, align 8
  %39 = load ptr, ptr %4, align 8
  %40 = getelementptr inbounds %struct.lzma_stream, ptr %39, i32 0, i32 7
  %41 = load ptr, ptr %40, align 8
  %42 = getelementptr inbounds %struct.lzma_internal_s, ptr %41, i32 0, i32 3
  %43 = getelementptr inbounds [5 x i8], ptr %42, i64 0, i64 1
  store i8 1, ptr %43, align 1
  %44 = load ptr, ptr %4, align 8
  %45 = getelementptr inbounds %struct.lzma_stream, ptr %44, i32 0, i32 7
  %46 = load ptr, ptr %45, align 8
  %47 = getelementptr inbounds %struct.lzma_internal_s, ptr %46, i32 0, i32 3
  %48 = getelementptr inbounds [5 x i8], ptr %47, i64 0, i64 3
  store i8 1, ptr %48, align 1
  store i32 0, ptr %3, align 4
  br label %49

49:                                               ; preds = %33, %29, %14
  %50 = load i32, ptr %3, align 4
  ret i32 %50
}