; Function Attrs: nounwind uwtable
define dso_local i32 @lzma_raw_encoder(ptr noundef %0, ptr noundef %1) local_unnamed_addr #2 {
  %3 = tail call i32 @lzma_strm_init(ptr noundef %0) #9
  %.not = icmp eq i32 %3, 0
  br i1 %.not, label %4, label %18

4:                                                ; preds = %2
  %5 = getelementptr inbounds nuw i8, ptr %0, i64 56
  %6 = load ptr, ptr %5, align 8
  %7 = getelementptr inbounds nuw i8, ptr %0, i64 48
  %8 = load ptr, ptr %7, align 8
  %9 = tail call i32 @lzma_raw_coder_init(ptr noundef %6, ptr noundef %8, ptr noundef %1, ptr noundef nonnull @encoder_find, i1 noundef zeroext true) #9
  %.not14 = icmp eq i32 %9, 0
  br i1 %.not14, label %11, label %10

10:                                               ; preds = %4
  tail call void @lzma_end(ptr noundef nonnull %0) #9
  br label %18

11:                                               ; preds = %4
  %12 = load ptr, ptr %5, align 8
  %13 = getelementptr inbounds nuw i8, ptr %12, i64 88
  store i8 1, ptr %13, align 8
  %14 = load ptr, ptr %5, align 8
  %15 = getelementptr inbounds nuw i8, ptr %14, i64 89
  store i8 1, ptr %15, align 1
  %16 = load ptr, ptr %5, align 8
  %17 = getelementptr inbounds nuw i8, ptr %16, i64 91
  store i8 1, ptr %17, align 1
  br label %18

18:                                               ; preds = %2, %11, %10
  %.0 = phi i32 [ %9, %10 ], [ 0, %11 ], [ %3, %2 ]
  ret i32 %.0
}